target datalayout = "e-m:e-p270:32:32-p271:32:32-p272:64:64-i64:64-i128:128-f80:128-n8:16:32:64-S128"
target triple = "x86_64-pc-linux-gnu"

@.str = private unnamed_addr constant [26 x i8] c"Parameter '%s' is invalid\00", align 1
@.str.1 = private unnamed_addr constant [9 x i8] c"scancode\00", align 1
@.str.2 = private unnamed_addr constant [1 x i8] zeroinitializer, align 1
@SDL_extended_key_names = internal global [7 x ptr] [ptr @.str.251, ptr @.str.252, ptr @.str.253, ptr @.str.254, ptr @.str.255, ptr @.str.256, ptr @.str.257], align 16
@.str.4 = private unnamed_addr constant [4 x i8] c"key\00", align 1

; Function Attrs: nounwind uwtable
define hidden ptr @SDL_GetScancodeName_REAL(i32 noundef %0) #0 {
  %2 = alloca ptr, align 8
  %3 = alloca i32, align 4
  %4 = alloca ptr, align 8
  %5 = alloca i32, align 4
  store i32 %0, ptr %3, align 4
  call void @llvm.lifetime.start.p0(i64 8, ptr %4) #4
  %6 = load i32, ptr %3, align 4
  %7 = icmp slt i32 %6, 0
  br i1 %7, label %11, label %8

8:                                                ; preds = %1
  %9 = load i32, ptr %3, align 4
  %10 = icmp uge i32 %9, 512
  br i1 %10, label %11, label %13

11:                                               ; preds = %8, %1
  %12 = call zeroext i1 (ptr, ...) @SDL_SetError_REAL(ptr noundef @.str, ptr noundef @.str.1)
  store ptr @.str.2, ptr %2, align 8
  store i32 1, ptr %5, align 4
  br label %23

13:                                               ; preds = %8
  %14 = load i32, ptr %3, align 4
  %15 = zext i32 %14 to i64
  %16 = getelementptr inbounds nuw [512 x ptr], ptr @SDL_scancode_names, i64 0, i64 %15
  %17 = load ptr, ptr %16, align 8
  store ptr %17, ptr %4, align 8
  %18 = load ptr, ptr %4, align 8
  %19 = icmp ne ptr %18, null
  br i1 %19, label %21, label %20

20:                                               ; preds = %13
  store ptr @.str.2, ptr %4, align 8
  br label %21

21:                                               ; preds = %20, %13
  %22 = load ptr, ptr %4, align 8
  store ptr %22, ptr %2, align 8
  store i32 1, ptr %5, align 4
  br label %23

23:                                               ; preds = %21, %11
  call void @llvm.lifetime.end.p0(i64 8, ptr %4) #4
  %24 = load ptr, ptr %2, align 8
  ret ptr %24
}

; Function Attrs: nounwind uwtable
define hidden ptr @SDL_GetKeyName_REAL(i32 noundef %0) #0 {
  %2 = alloca ptr, align 8
  %3 = alloca i32, align 4
  %4 = alloca i8, align 1
  %5 = alloca [8 x i8], align 1
  %6 = alloca ptr, align 8
  %7 = alloca i32, align 4
  %8 = alloca i32, align 4
  %9 = alloca ptr, align 8
  %10 = alloca i16, align 2
  %11 = alloca i32, align 4
  %12 = alloca i32, align 4
  store i32 %0, ptr %3, align 4
  call void @llvm.lifetime.start.p0(i64 1, ptr %4) #4
  store i8 1, ptr %4, align 1
  call void @llvm.lifetime.start.p0(i64 8, ptr %5) #4
  call void @llvm.lifetime.start.p0(i64 8, ptr %6) #4
  %13 = load i32, ptr %3, align 4
  %14 = and i32 %13, 1073741824
  %15 = icmp ne i32 %14, 0
  br i1 %15, label %16, label %20

16:                                               ; preds = %1
  %17 = load i32, ptr %3, align 4
  %18 = and i32 %17, -1073741825
  %19 = call ptr @SDL_GetScancodeName_REAL(i32 noundef %18)
  store ptr %19, ptr %2, align 8
  store i32 1, ptr %7, align 4
  br label %101

20:                                               ; preds = %1
  %21 = load i32, ptr %3, align 4
  %22 = and i32 %21, 536870912
  %23 = icmp ne i32 %22, 0
  br i1 %23, label %24, label %43

24:                                               ; preds = %20
  call void @llvm.lifetime.start.p0(i64 4, ptr %8) #4
  %25 = load i32, ptr %3, align 4
  %26 = and i32 %25, -536870913
  store i32 %26, ptr %8, align 4
  %27 = load i32, ptr %8, align 4
  %28 = icmp ugt i32 %27, 0
  br i1 %28, label %29, label %40

29:                                               ; preds = %24
  %30 = load i32, ptr %8, align 4
  %31 = sub i32 %30, 1
  %32 = zext i32 %31 to i64
  %33 = icmp ult i64 %32, 7
  br i1 %33, label %34, label %40

34:                                               ; preds = %29
  %35 = load i32, ptr %8, align 4
  %36 = sub i32 %35, 1
  %37 = zext i32 %36 to i64
  %38 = getelementptr inbounds nuw [7 x ptr], ptr @SDL_extended_key_names, i64 0, i64 %37
  %39 = load ptr, ptr %38, align 8
  store ptr %39, ptr %2, align 8
  store i32 1, ptr %7, align 4
  br label %42

40:                                               ; preds = %29, %24
  %41 = call zeroext i1 (ptr, ...) @SDL_SetError_REAL(ptr noundef @.str, ptr noundef @.str.4)
  store ptr @.str.2, ptr %2, align 8
  store i32 1, ptr %7, align 4
  br label %42

42:                                               ; preds = %40, %34
  call void @llvm.lifetime.end.p0(i64 4, ptr %8) #4
  br label %101

43:                                               ; preds = %20
  %44 = load i32, ptr %3, align 4
  switch i32 %44, label %57 [
    i32 13, label %45
    i32 27, label %47
    i32 8, label %49
    i32 9, label %51
    i32 32, label %53
    i32 127, label %55
  ]

45:                                               ; preds = %43
  %46 = call ptr @SDL_GetScancodeName_REAL(i32 noundef 40)
  store ptr %46, ptr %2, align 8
  store i32 1, ptr %7, align 4
  br label %101

47:                                               ; preds = %43
  %48 = call ptr @SDL_GetScancodeName_REAL(i32 noundef 41)
  store ptr %48, ptr %2, align 8
  store i32 1, ptr %7, align 4
  br label %101

49:                                               ; preds = %43
  %50 = call ptr @SDL_GetScancodeName_REAL(i32 noundef 42)
  store ptr %50, ptr %2, align 8
  store i32 1, ptr %7, align 4
  br label %101

51:                                               ; preds = %43
  %52 = call ptr @SDL_GetScancodeName_REAL(i32 noundef 43)
  store ptr %52, ptr %2, align 8
  store i32 1, ptr %7, align 4
  br label %101

53:                                               ; preds = %43
  %54 = call ptr @SDL_GetScancodeName_REAL(i32 noundef 44)
  store ptr %54, ptr %2, align 8
  store i32 1, ptr %7, align 4
  br label %101

55:                                               ; preds = %43
  %56 = call ptr @SDL_GetScancodeName_REAL(i32 noundef 76)
  store ptr %56, ptr %2, align 8
  store i32 1, ptr %7, align 4
  br label %101

57:                                               ; preds = %43
  %58 = load i32, ptr %3, align 4
  %59 = icmp ugt i32 %58, 127
  br i1 %59, label %66, label %60

60:                                               ; preds = %57
  %61 = load i32, ptr %3, align 4
  %62 = icmp uge i32 %61, 97
  br i1 %62, label %63, label %94

63:                                               ; preds = %60
  %64 = load i32, ptr %3, align 4
  %65 = icmp ule i32 %64, 122
  br i1 %65, label %66, label %94

66:                                               ; preds = %63, %57
  call void @llvm.lifetime.start.p0(i64 8, ptr %9) #4
  %67 = call ptr @SDL_GetCurrentKeymap()
  store ptr %67, ptr %9, align 8
  call void @llvm.lifetime.start.p0(i64 2, ptr %10) #4
  call void @llvm.lifetime.start.p0(i64 4, ptr %11) #4
  %68 = load ptr, ptr %9, align 8
  %69 = load i32, ptr %3, align 4
  %70 = call i32 @SDL_GetKeymapScancode(ptr noundef %68, i32 noundef %69, ptr noundef %10)
  store i32 %70, ptr %11, align 4
  %71 = load i32, ptr %11, align 4
  %72 = icmp ne i32 %71, 0
  br i1 %72, label %73, label %93

73:                                               ; preds = %66
  %74 = load i16, ptr %10, align 2
  %75 = zext i16 %74 to i32
  %76 = and i32 %75, 3
  %77 = icmp ne i32 %76, 0
  br i1 %77, label %93, label %78

78:                                               ; preds = %73
  call void @llvm.lifetime.start.p0(i64 4, ptr %12) #4
  %79 = load ptr, ptr %9, align 8
  %80 = load i32, ptr %11, align 4
  %81 = call i32 @SDL_GetKeymapKeycode(ptr noundef %79, i32 noundef %80, i16 noundef zeroext 3)
  store i32 %81, ptr %12, align 4
  %82 = load i32, ptr %12, align 4
  %83 = icmp ugt i32 %82, 127
  br i1 %83, label %90, label %84

84:                                               ; preds = %78
  %85 = load i32, ptr %12, align 4
  %86 = icmp uge i32 %85, 65
  br i1 %86, label %87, label %92

87:                                               ; preds = %84
  %88 = load i32, ptr %12, align 4
  %89 = icmp ule i32 %88, 90
  br i1 %89, label %90, label %92

90:                                               ; preds = %87, %78
  %91 = load i32, ptr %12, align 4
  store i32 %91, ptr %3, align 4
  br label %92

92:                                               ; preds = %90, %87, %84
  call void @llvm.lifetime.end.p0(i64 4, ptr %12) #4
  br label %93

93:                                               ; preds = %92, %73, %66
  call void @llvm.lifetime.end.p0(i64 4, ptr %11) #4
  call void @llvm.lifetime.end.p0(i64 2, ptr %10) #4
  call void @llvm.lifetime.end.p0(i64 8, ptr %9) #4
  br label %94

94:                                               ; preds = %93, %63, %60
  %95 = load i32, ptr %3, align 4
  %96 = getelementptr inbounds [8 x i8], ptr %5, i64 0, i64 0
  %97 = call ptr @SDL_UCS4ToUTF8_REAL(i32 noundef %95, ptr noundef %96)
  store ptr %97, ptr %6, align 8
  %98 = load ptr, ptr %6, align 8
  store i8 0, ptr %98, align 1
  %99 = getelementptr inbounds [8 x i8], ptr %5, i64 0, i64 0
  %100 = call ptr @SDL_GetPersistentString(ptr noundef %99)
  store ptr %100, ptr %2, align 8
  store i32 1, ptr %7, align 4
  br label %101

101:                                              ; preds = %94, %55, %53, %51, %49, %47, %45, %42, %16
  call void @llvm.lifetime.end.p0(i64 8, ptr %6) #4
  call void @llvm.lifetime.end.p0(i64 8, ptr %5) #4
  call void @llvm.lifetime.end.p0(i64 1, ptr %4) #4
  %102 = load ptr, ptr %2, align 8
  ret ptr %102
}