; Function Attrs: nounwind uwtable
define hidden ptr @SDL_GetKeyName_REAL(i32 noundef %0) local_unnamed_addr #0 {
  %2 = alloca [8 x i8], align 1
  %3 = alloca i16, align 2
  call void @llvm.lifetime.start.p0(i64 8, ptr nonnull %2) #5
  %4 = and i32 %0, 1073741824
  %.not = icmp eq i32 %4, 0
  br i1 %.not, label %14, label %5

5:                                                ; preds = %1
  %6 = and i32 %0, -1073741825
  %7 = icmp ugt i32 %6, 511
  br i1 %7, label %8, label %10

8:                                                ; preds = %5
  %9 = tail call zeroext i1 (ptr, ...) @SDL_SetError_REAL(ptr noundef nonnull @.str, ptr noundef nonnull @.str.1) #5
  br label %SDL_GetScancodeName_REAL.exit

10:                                               ; preds = %5
  %11 = zext nneg i32 %6 to i64
  %12 = getelementptr inbounds nuw [512 x ptr], ptr @SDL_scancode_names, i64 0, i64 %11
  %13 = load ptr, ptr %12, align 8
  %.not.i = icmp eq ptr %13, null
  %spec.store.select.i = select i1 %.not.i, ptr @.str.2, ptr %13
  br label %SDL_GetScancodeName_REAL.exit

14:                                               ; preds = %1
  %15 = and i32 %0, 536870912
  %.not32 = icmp eq i32 %15, 0
  br i1 %.not32, label %25, label %16

16:                                               ; preds = %14
  %17 = and i32 %0, -1610612737
  %18 = add i32 %17, -1
  %or.cond36 = icmp ult i32 %18, 7
  br i1 %or.cond36, label %19, label %23

19:                                               ; preds = %16
  %20 = zext nneg i32 %18 to i64
  %21 = getelementptr inbounds nuw [7 x ptr], ptr @SDL_extended_key_names, i64 0, i64 %20
  %22 = load ptr, ptr %21, align 8
  br label %SDL_GetScancodeName_REAL.exit

23:                                               ; preds = %16
  %24 = tail call zeroext i1 (ptr, ...) @SDL_SetError_REAL(ptr noundef nonnull @.str, ptr noundef nonnull @.str.4) #5
  br label %SDL_GetScancodeName_REAL.exit

25:                                               ; preds = %14
  switch i32 %0, label %38 [
    i32 13, label %26
    i32 27, label %28
    i32 8, label %30
    i32 9, label %32
    i32 32, label %34
    i32 127, label %36
  ]

26:                                               ; preds = %25
  %27 = load ptr, ptr getelementptr inbounds nuw (i8, ptr @SDL_scancode_names, i64 320), align 16
  %.not.i39 = icmp eq ptr %27, null
  %spec.store.select.i40 = select i1 %.not.i39, ptr @.str.2, ptr %27
  br label %SDL_GetScancodeName_REAL.exit

28:                                               ; preds = %25
  %29 = load ptr, ptr getelementptr inbounds nuw (i8, ptr @SDL_scancode_names, i64 328), align 8
  %.not.i42 = icmp eq ptr %29, null
  %spec.store.select.i43 = select i1 %.not.i42, ptr @.str.2, ptr %29
  br label %SDL_GetScancodeName_REAL.exit

30:                                               ; preds = %25
  %31 = load ptr, ptr getelementptr inbounds nuw (i8, ptr @SDL_scancode_names, i64 336), align 16
  %.not.i45 = icmp eq ptr %31, null
  %spec.store.select.i46 = select i1 %.not.i45, ptr @.str.2, ptr %31
  br label %SDL_GetScancodeName_REAL.exit

32:                                               ; preds = %25
  %33 = load ptr, ptr getelementptr inbounds nuw (i8, ptr @SDL_scancode_names, i64 344), align 8
  %.not.i48 = icmp eq ptr %33, null
  %spec.store.select.i49 = select i1 %.not.i48, ptr @.str.2, ptr %33
  br label %SDL_GetScancodeName_REAL.exit

34:                                               ; preds = %25
  %35 = load ptr, ptr getelementptr inbounds nuw (i8, ptr @SDL_scancode_names, i64 352), align 16
  %.not.i51 = icmp eq ptr %35, null
  %spec.store.select.i52 = select i1 %.not.i51, ptr @.str.2, ptr %35
  br label %SDL_GetScancodeName_REAL.exit

36:                                               ; preds = %25
  %37 = load ptr, ptr getelementptr inbounds nuw (i8, ptr @SDL_scancode_names, i64 608), align 16
  %.not.i54 = icmp eq ptr %37, null
  %spec.store.select.i55 = select i1 %.not.i54, ptr @.str.2, ptr %37
  br label %SDL_GetScancodeName_REAL.exit

38:                                               ; preds = %25
  %39 = icmp ugt i32 %0, 127
  %40 = add nsw i32 %0, -97
  %or.cond = icmp ult i32 %40, 26
  %or.cond37 = select i1 %39, i1 true, i1 %or.cond
  br i1 %or.cond37, label %41, label %52

41:                                               ; preds = %38
  %42 = tail call ptr @SDL_GetCurrentKeymap() #5
  call void @llvm.lifetime.start.p0(i64 2, ptr nonnull %3) #5
  %43 = call i32 @SDL_GetKeymapScancode(ptr noundef %42, i32 noundef %0, ptr noundef nonnull %3)
  %.not33 = icmp eq i32 %43, 0
  br i1 %.not33, label %51, label %44

44:                                               ; preds = %41
  %45 = load i16, ptr %3, align 2
  %46 = and i16 %45, 3
  %.not34 = icmp eq i16 %46, 0
  br i1 %.not34, label %47, label %51

47:                                               ; preds = %44
  %48 = call i32 @SDL_GetKeymapKeycode(ptr noundef %42, i32 noundef %43, i16 noundef zeroext 3)
  %49 = icmp ugt i32 %48, 127
  %50 = add nsw i32 %48, -65
  %or.cond3 = icmp ult i32 %50, 26
  %or.cond38 = select i1 %49, i1 true, i1 %or.cond3
  %.2 = select i1 %or.cond38, i32 %48, i32 %0
  br label %51

51:                                               ; preds = %47, %44, %41
  %.126 = phi i32 [ %0, %44 ], [ %.2, %47 ], [ %0, %41 ]
  call void @llvm.lifetime.end.p0(i64 2, ptr nonnull %3) #5
  br label %52

52:                                               ; preds = %38, %51
  %.025 = phi i32 [ %.126, %51 ], [ %0, %38 ]
  %53 = call ptr @SDL_UCS4ToUTF8_REAL(i32 noundef %.025, ptr noundef nonnull %2) #5
  store i8 0, ptr %53, align 1
  %54 = call ptr @SDL_GetPersistentString(ptr noundef nonnull %2) #5
  br label %SDL_GetScancodeName_REAL.exit

SDL_GetScancodeName_REAL.exit:                    ; preds = %10, %8, %19, %23, %52, %36, %34, %32, %30, %28, %26
  %.0 = phi ptr [ %54, %52 ], [ %spec.store.select.i55, %36 ], [ %spec.store.select.i52, %34 ], [ %spec.store.select.i49, %32 ], [ %spec.store.select.i46, %30 ], [ %spec.store.select.i43, %28 ], [ %spec.store.select.i40, %26 ], [ %22, %19 ], [ @.str.2, %23 ], [ @.str.2, %8 ], [ %spec.store.select.i, %10 ]
  call void @llvm.lifetime.end.p0(i64 8, ptr nonnull %2) #5
  ret ptr %.0
}